target datalayout = "e-m:e-p270:32:32-p271:32:32-p272:64:64-i64:64-i128:128-f80:128-n8:16:32:64-S128"
target triple = "x86_64-pc-linux-gnu"

%struct.FSE_DTableHeader = type { i16, i16 }
%struct.FSE_decode_t = type { i16, i8, i8 }

; Function Attrs: inlinehint nounwind uwtable
define internal i32 @BIT_highbit32(i32 noundef %0) #2 {
  %2 = alloca i32, align 4
  store i32 %0, ptr %2, align 4, !tbaa !15
  %3 = load i32, ptr %2, align 4, !tbaa !15
  %4 = call i32 @llvm.ctlz.i32(i32 %3, i1 true)
  %5 = xor i32 %4, 31
  ret i32 %5
}

; Function Attrs: nounwind uwtable
define internal i32 @FSE_tableStep(i32 noundef %0) #0 {
  %2 = alloca i32, align 4
  store i32 %0, ptr %2, align 4, !tbaa !15
  %3 = load i32, ptr %2, align 4, !tbaa !15
  %4 = lshr i32 %3, 1
  %5 = load i32, ptr %2, align 4, !tbaa !15
  %6 = lshr i32 %5, 3
  %7 = add i32 %4, %6
  %8 = add i32 %7, 3
  ret i32 %8
}

; Function Attrs: nounwind uwtable
define internal i64 @FSE_buildDTable(ptr noundef %0, ptr noundef %1, i32 noundef %2, i32 noundef %3) #0 {
  %5 = alloca i64, align 8
  %6 = alloca ptr, align 8
  %7 = alloca ptr, align 8
  %8 = alloca i32, align 4
  %9 = alloca i32, align 4
  %10 = alloca ptr, align 8
  %11 = alloca %struct.FSE_DTableHeader, align 2
  %12 = alloca ptr, align 8
  %13 = alloca i32, align 4
  %14 = alloca i32, align 4
  %15 = alloca i32, align 4
  %16 = alloca [256 x i16], align 16
  %17 = alloca i32, align 4
  %18 = alloca i32, align 4
  %19 = alloca i16, align 2
  %20 = alloca i32, align 4
  %21 = alloca i32, align 4
  %22 = alloca i32, align 4
  %23 = alloca i32, align 4
  %24 = alloca i32, align 4
  %25 = alloca i8, align 1
  %26 = alloca i16, align 2
  store ptr %0, ptr %6, align 8, !tbaa !33
  store ptr %1, ptr %7, align 8, !tbaa !46
  store i32 %2, ptr %8, align 4, !tbaa !15
  store i32 %3, ptr %9, align 4, !tbaa !15
  call void @llvm.lifetime.start.p0(i64 8, ptr %10) #9
  %27 = load ptr, ptr %6, align 8, !tbaa !33
  %28 = getelementptr inbounds i32, ptr %27, i64 1
  store ptr %28, ptr %10, align 8, !tbaa !3
  call void @llvm.lifetime.start.p0(i64 4, ptr %11) #9
  call void @llvm.lifetime.start.p0(i64 8, ptr %12) #9
  %29 = load ptr, ptr %10, align 8, !tbaa !3
  store ptr %29, ptr %12, align 8, !tbaa !3
  call void @llvm.lifetime.start.p0(i64 4, ptr %13) #9
  %30 = load i32, ptr %9, align 4, !tbaa !15
  %31 = shl i32 1, %30
  store i32 %31, ptr %13, align 4, !tbaa !15
  call void @llvm.lifetime.start.p0(i64 4, ptr %14) #9
  %32 = load i32, ptr %13, align 4, !tbaa !15
  %33 = sub i32 %32, 1
  store i32 %33, ptr %14, align 4, !tbaa !15
  call void @llvm.lifetime.start.p0(i64 4, ptr %15) #9
  %34 = load i32, ptr %13, align 4, !tbaa !15
  %35 = call i32 @FSE_tableStep(i32 noundef %34)
  store i32 %35, ptr %15, align 4, !tbaa !15
  call void @llvm.lifetime.start.p0(i64 512, ptr %16) #9
  call void @llvm.lifetime.start.p0(i64 4, ptr %17) #9
  store i32 0, ptr %17, align 4, !tbaa !15
  call void @llvm.lifetime.start.p0(i64 4, ptr %18) #9
  %36 = load i32, ptr %13, align 4, !tbaa !15
  %37 = sub i32 %36, 1
  store i32 %37, ptr %18, align 4, !tbaa !15
  call void @llvm.lifetime.start.p0(i64 2, ptr %19) #9
  %38 = load i32, ptr %9, align 4, !tbaa !15
  %39 = sub i32 %38, 1
  %40 = shl i32 1, %39
  %41 = trunc i32 %40 to i16
  store i16 %41, ptr %19, align 2, !tbaa !48
  call void @llvm.lifetime.start.p0(i64 4, ptr %20) #9
  store i32 1, ptr %20, align 4, !tbaa !15
  call void @llvm.lifetime.start.p0(i64 4, ptr %21) #9
  %42 = load i32, ptr %8, align 4, !tbaa !15
  %43 = icmp ugt i32 %42, 255
  br i1 %43, label %44, label %45

44:                                               ; preds = %4
  store i64 -46, ptr %5, align 8
  store i32 1, ptr %22, align 4
  br label %205

45:                                               ; preds = %4
  %46 = load i32, ptr %9, align 4, !tbaa !15
  %47 = icmp ugt i32 %46, 12
  br i1 %47, label %48, label %49

48:                                               ; preds = %45
  store i64 -44, ptr %5, align 8
  store i32 1, ptr %22, align 4
  br label %205

49:                                               ; preds = %45
  %50 = load i32, ptr %9, align 4, !tbaa !15
  %51 = trunc i32 %50 to i16
  %52 = getelementptr inbounds nuw %struct.FSE_DTableHeader, ptr %11, i32 0, i32 0
  store i16 %51, ptr %52, align 2, !tbaa !65
  store i32 0, ptr %21, align 4, !tbaa !15
  br label %53

53:                                               ; preds = %98, %49
  %54 = load i32, ptr %21, align 4, !tbaa !15
  %55 = load i32, ptr %8, align 4, !tbaa !15
  %56 = icmp ule i32 %54, %55
  br i1 %56, label %57, label %101

57:                                               ; preds = %53
  %58 = load ptr, ptr %7, align 8, !tbaa !46
  %59 = load i32, ptr %21, align 4, !tbaa !15
  %60 = zext i32 %59 to i64
  %61 = getelementptr inbounds nuw i16, ptr %58, i64 %60
  %62 = load i16, ptr %61, align 2, !tbaa !48
  %63 = sext i16 %62 to i32
  %64 = icmp eq i32 %63, -1
  br i1 %64, label %65, label %77

65:                                               ; preds = %57
  %66 = load i32, ptr %21, align 4, !tbaa !15
  %67 = trunc i32 %66 to i8
  %68 = load ptr, ptr %12, align 8, !tbaa !3
  %69 = load i32, ptr %18, align 4, !tbaa !15
  %70 = add i32 %69, -1
  store i32 %70, ptr %18, align 4, !tbaa !15
  %71 = zext i32 %69 to i64
  %72 = getelementptr inbounds nuw %struct.FSE_decode_t, ptr %68, i64 %71
  %73 = getelementptr inbounds nuw %struct.FSE_decode_t, ptr %72, i32 0, i32 1
  store i8 %67, ptr %73, align 2, !tbaa !67
  %74 = load i32, ptr %21, align 4, !tbaa !15
  %75 = zext i32 %74 to i64
  %76 = getelementptr inbounds nuw [256 x i16], ptr %16, i64 0, i64 %75
  store i16 1, ptr %76, align 2, !tbaa !48
  br label %97

77:                                               ; preds = %57
  %78 = load ptr, ptr %7, align 8, !tbaa !46
  %79 = load i32, ptr %21, align 4, !tbaa !15
  %80 = zext i32 %79 to i64
  %81 = getelementptr inbounds nuw i16, ptr %78, i64 %80
  %82 = load i16, ptr %81, align 2, !tbaa !48
  %83 = sext i16 %82 to i32
  %84 = load i16, ptr %19, align 2, !tbaa !48
  %85 = sext i16 %84 to i32
  %86 = icmp sge i32 %83, %85
  br i1 %86, label %87, label %88

87:                                               ; preds = %77
  store i32 0, ptr %20, align 4, !tbaa !15
  br label %88

88:                                               ; preds = %87, %77
  %89 = load ptr, ptr %7, align 8, !tbaa !46
  %90 = load i32, ptr %21, align 4, !tbaa !15
  %91 = zext i32 %90 to i64
  %92 = getelementptr inbounds nuw i16, ptr %89, i64 %91
  %93 = load i16, ptr %92, align 2, !tbaa !48
  %94 = load i32, ptr %21, align 4, !tbaa !15
  %95 = zext i32 %94 to i64
  %96 = getelementptr inbounds nuw [256 x i16], ptr %16, i64 0, i64 %95
  store i16 %93, ptr %96, align 2, !tbaa !48
  br label %97

97:                                               ; preds = %88, %65
  br label %98

98:                                               ; preds = %97
  %99 = load i32, ptr %21, align 4, !tbaa !15
  %100 = add i32 %99, 1
  store i32 %100, ptr %21, align 4, !tbaa !15
  br label %53, !llvm.loop !69

101:                                              ; preds = %53
  store i32 0, ptr %21, align 4, !tbaa !15
  br label %102

102:                                              ; preds = %144, %101
  %103 = load i32, ptr %21, align 4, !tbaa !15
  %104 = load i32, ptr %8, align 4, !tbaa !15
  %105 = icmp ule i32 %103, %104
  br i1 %105, label %106, label %147

106:                                              ; preds = %102
  call void @llvm.lifetime.start.p0(i64 4, ptr %23) #9
  store i32 0, ptr %23, align 4, !tbaa !15
  br label %107

107:                                              ; preds = %140, %106
  %108 = load i32, ptr %23, align 4, !tbaa !15
  %109 = load ptr, ptr %7, align 8, !tbaa !46
  %110 = load i32, ptr %21, align 4, !tbaa !15
  %111 = zext i32 %110 to i64
  %112 = getelementptr inbounds nuw i16, ptr %109, i64 %111
  %113 = load i16, ptr %112, align 2, !tbaa !48
  %114 = sext i16 %113 to i32
  %115 = icmp slt i32 %108, %114
  br i1 %115, label %116, label %143

116:                                              ; preds = %107
  %117 = load i32, ptr %21, align 4, !tbaa !15
  %118 = trunc i32 %117 to i8
  %119 = load ptr, ptr %12, align 8, !tbaa !3
  %120 = load i32, ptr %17, align 4, !tbaa !15
  %121 = zext i32 %120 to i64
  %122 = getelementptr inbounds nuw %struct.FSE_decode_t, ptr %119, i64 %121
  %123 = getelementptr inbounds nuw %struct.FSE_decode_t, ptr %122, i32 0, i32 1
  store i8 %118, ptr %123, align 2, !tbaa !67
  %124 = load i32, ptr %17, align 4, !tbaa !15
  %125 = load i32, ptr %15, align 4, !tbaa !15
  %126 = add i32 %124, %125
  %127 = load i32, ptr %14, align 4, !tbaa !15
  %128 = and i32 %126, %127
  store i32 %128, ptr %17, align 4, !tbaa !15
  br label %129

129:                                              ; preds = %133, %116
  %130 = load i32, ptr %17, align 4, !tbaa !15
  %131 = load i32, ptr %18, align 4, !tbaa !15
  %132 = icmp ugt i32 %130, %131
  br i1 %132, label %133, label %139

133:                                              ; preds = %129
  %134 = load i32, ptr %17, align 4, !tbaa !15
  %135 = load i32, ptr %15, align 4, !tbaa !15
  %136 = add i32 %134, %135
  %137 = load i32, ptr %14, align 4, !tbaa !15
  %138 = and i32 %136, %137
  store i32 %138, ptr %17, align 4, !tbaa !15
  br label %129, !llvm.loop !70

139:                                              ; preds = %129
  br label %140

140:                                              ; preds = %139
  %141 = load i32, ptr %23, align 4, !tbaa !15
  %142 = add nsw i32 %141, 1
  store i32 %142, ptr %23, align 4, !tbaa !15
  br label %107, !llvm.loop !71

143:                                              ; preds = %107
  call void @llvm.lifetime.end.p0(i64 4, ptr %23) #9
  br label %144

144:                                              ; preds = %143
  %145 = load i32, ptr %21, align 4, !tbaa !15
  %146 = add i32 %145, 1
  store i32 %146, ptr %21, align 4, !tbaa !15
  br label %102, !llvm.loop !72

147:                                              ; preds = %102
  %148 = load i32, ptr %17, align 4, !tbaa !15
  %149 = icmp ne i32 %148, 0
  br i1 %149, label %150, label %151

150:                                              ; preds = %147
  store i64 -1, ptr %5, align 8
  store i32 1, ptr %22, align 4
  br label %205

151:                                              ; preds = %147
  call void @llvm.lifetime.start.p0(i64 4, ptr %24) #9
  store i32 0, ptr %24, align 4, !tbaa !15
  br label %152

152:                                              ; preds = %197, %151
  %153 = load i32, ptr %24, align 4, !tbaa !15
  %154 = load i32, ptr %13, align 4, !tbaa !15
  %155 = icmp ult i32 %153, %154
  br i1 %155, label %156, label %200

156:                                              ; preds = %152
  call void @llvm.lifetime.start.p0(i64 1, ptr %25) #9
  %157 = load ptr, ptr %12, align 8, !tbaa !3
  %158 = load i32, ptr %24, align 4, !tbaa !15
  %159 = zext i32 %158 to i64
  %160 = getelementptr inbounds nuw %struct.FSE_decode_t, ptr %157, i64 %159
  %161 = getelementptr inbounds nuw %struct.FSE_decode_t, ptr %160, i32 0, i32 1
  %162 = load i8, ptr %161, align 2, !tbaa !67
  store i8 %162, ptr %25, align 1, !tbaa !19
  call void @llvm.lifetime.start.p0(i64 2, ptr %26) #9
  %163 = load i8, ptr %25, align 1, !tbaa !19
  %164 = zext i8 %163 to i64
  %165 = getelementptr inbounds nuw [256 x i16], ptr %16, i64 0, i64 %164
  %166 = load i16, ptr %165, align 2, !tbaa !48
  %167 = add i16 %166, 1
  store i16 %167, ptr %165, align 2, !tbaa !48
  store i16 %166, ptr %26, align 2, !tbaa !48
  %168 = load i32, ptr %9, align 4, !tbaa !15
  %169 = load i16, ptr %26, align 2, !tbaa !48
  %170 = zext i16 %169 to i32
  %171 = call i32 @BIT_highbit32(i32 noundef %170)
  %172 = sub i32 %168, %171
  %173 = trunc i32 %172 to i8
  %174 = load ptr, ptr %12, align 8, !tbaa !3
  %175 = load i32, ptr %24, align 4, !tbaa !15
  %176 = zext i32 %175 to i64
  %177 = getelementptr inbounds nuw %struct.FSE_decode_t, ptr %174, i64 %176
  %178 = getelementptr inbounds nuw %struct.FSE_decode_t, ptr %177, i32 0, i32 2
  store i8 %173, ptr %178, align 1, !tbaa !73
  %179 = load i16, ptr %26, align 2, !tbaa !48
  %180 = zext i16 %179 to i32
  %181 = load ptr, ptr %12, align 8, !tbaa !3
  %182 = load i32, ptr %24, align 4, !tbaa !15
  %183 = zext i32 %182 to i64
  %184 = getelementptr inbounds nuw %struct.FSE_decode_t, ptr %181, i64 %183
  %185 = getelementptr inbounds nuw %struct.FSE_decode_t, ptr %184, i32 0, i32 2
  %186 = load i8, ptr %185, align 1, !tbaa !73
  %187 = zext i8 %186 to i32
  %188 = shl i32 %180, %187
  %189 = load i32, ptr %13, align 4, !tbaa !15
  %190 = sub i32 %188, %189
  %191 = trunc i32 %190 to i16
  %192 = load ptr, ptr %12, align 8, !tbaa !3
  %193 = load i32, ptr %24, align 4, !tbaa !15
  %194 = zext i32 %193 to i64
  %195 = getelementptr inbounds nuw %struct.FSE_decode_t, ptr %192, i64 %194
  %196 = getelementptr inbounds nuw %struct.FSE_decode_t, ptr %195, i32 0, i32 0
  store i16 %191, ptr %196, align 2, !tbaa !74
  call void @llvm.lifetime.end.p0(i64 2, ptr %26) #9
  call void @llvm.lifetime.end.p0(i64 1, ptr %25) #9
  br label %197

197:                                              ; preds = %156
  %198 = load i32, ptr %24, align 4, !tbaa !15
  %199 = add i32 %198, 1
  store i32 %199, ptr %24, align 4, !tbaa !15
  br label %152, !llvm.loop !75

200:                                              ; preds = %152
  call void @llvm.lifetime.end.p0(i64 4, ptr %24) #9
  %201 = load i32, ptr %20, align 4, !tbaa !15
  %202 = trunc i32 %201 to i16
  %203 = getelementptr inbounds nuw %struct.FSE_DTableHeader, ptr %11, i32 0, i32 1
  store i16 %202, ptr %203, align 2, !tbaa !76
  %204 = load ptr, ptr %6, align 8, !tbaa !33
  call void @llvm.memcpy.p0.p0.i64(ptr align 4 %204, ptr align 2 %11, i64 4, i1 false)
  store i64 0, ptr %5, align 8
  store i32 1, ptr %22, align 4
  br label %205

205:                                              ; preds = %200, %150, %48, %44
  call void @llvm.lifetime.end.p0(i64 4, ptr %21) #9
  call void @llvm.lifetime.end.p0(i64 4, ptr %20) #9
  call void @llvm.lifetime.end.p0(i64 2, ptr %19) #9
  call void @llvm.lifetime.end.p0(i64 4, ptr %18) #9
  call void @llvm.lifetime.end.p0(i64 4, ptr %17) #9
  call void @llvm.lifetime.end.p0(i64 512, ptr %16) #9
  call void @llvm.lifetime.end.p0(i64 4, ptr %15) #9
  call void @llvm.lifetime.end.p0(i64 4, ptr %14) #9
  call void @llvm.lifetime.end.p0(i64 4, ptr %13) #9
  call void @llvm.lifetime.end.p0(i64 8, ptr %12) #9
  call void @llvm.lifetime.end.p0(i64 4, ptr %11) #9
  call void @llvm.lifetime.end.p0(i64 8, ptr %10) #9
  %206 = load i64, ptr %5, align 8
  ret i64 %206
}