; Function Attrs: nofree norecurse nosync nounwind memory(argmem: readwrite) uwtable
define internal fastcc range(i64 -46, 1) i64 @FSE_buildDTable(ptr noundef captures(none) %0, ptr noundef nonnull readonly captures(none) %1, i32 noundef %2, i32 noundef %3) unnamed_addr #0 {
  %5 = alloca [256 x i16], align 16
  %6 = getelementptr inbounds nuw i8, ptr %0, i64 4
  %7 = shl nuw i32 1, %3
  %8 = add i32 %7, -1
  %9 = lshr i32 %7, 1
  %10 = lshr i32 %7, 3
  %11 = add nuw nsw i32 %10, 3
  %12 = add nuw nsw i32 %11, %9
  call void @llvm.lifetime.start.p0(i64 512, ptr nonnull %5) #18
  %13 = icmp ugt i32 %2, 255
  br i1 %13, label %64, label %14

14:                                               ; preds = %4
  %15 = icmp ugt i32 %3, 12
  br i1 %15, label %64, label %16

16:                                               ; preds = %14
  %sext = shl nuw nsw i32 32768, %3
  %17 = lshr exact i32 %sext, 16
  %18 = add nuw nsw i32 %2, 1
  %wide.trip.count = zext nneg i32 %18 to i64
  br label %19

19:                                               ; preds = %16, %30
  %indvars.iv = phi i64 [ 0, %16 ], [ %indvars.iv.next, %30 ]
  %.06784 = phi i16 [ 1, %16 ], [ %.269, %30 ]
  %.07083 = phi i32 [ %8, %16 ], [ %.171, %30 ]
  %20 = getelementptr inbounds nuw i16, ptr %1, i64 %indvars.iv
  %21 = load i16, ptr %20, align 2, !tbaa !37
  %22 = icmp eq i16 %21, -1
  br i1 %22, label %23, label %28

23:                                               ; preds = %19
  %24 = trunc i64 %indvars.iv to i8
  %25 = add i32 %.07083, -1
  %26 = zext i32 %.07083 to i64
  %.idx79 = shl nuw nsw i64 %26, 2
  %.offs80 = or disjoint i64 %.idx79, 2
  %27 = getelementptr inbounds nuw i8, ptr %6, i64 %.offs80
  store i8 %24, ptr %27, align 2, !tbaa !34
  br label %30

28:                                               ; preds = %19
  %29 = sext i16 %21 to i32
  %.not78 = icmp sgt i32 %17, %29
  %spec.select = select i1 %.not78, i16 %.06784, i16 0
  br label %30

30:                                               ; preds = %23, %28
  %.sink = phi i16 [ 1, %23 ], [ %21, %28 ]
  %.171 = phi i32 [ %25, %23 ], [ %.07083, %28 ]
  %.269 = phi i16 [ %.06784, %23 ], [ %spec.select, %28 ]
  %31 = getelementptr inbounds nuw [256 x i16], ptr %5, i64 0, i64 %indvars.iv
  store i16 %.sink, ptr %31, align 2, !tbaa !37
  %indvars.iv.next = add nuw nsw i64 %indvars.iv, 1
  %exitcond.not = icmp eq i64 %indvars.iv.next, %wide.trip.count
  br i1 %exitcond.not, label %.preheader81, label %19, !llvm.loop !71

.preheader81:                                     ; preds = %30, %._crit_edge
  %indvars.iv92 = phi i64 [ %indvars.iv.next93, %._crit_edge ], [ 0, %30 ]
  %.06289 = phi i32 [ %.1.lcssa, %._crit_edge ], [ 0, %30 ]
  %32 = getelementptr inbounds nuw i16, ptr %1, i64 %indvars.iv92
  %33 = load i16, ptr %32, align 2, !tbaa !37
  %34 = sext i16 %33 to i32
  %35 = icmp sgt i16 %33, 0
  br i1 %35, label %.lr.ph, label %._crit_edge

.lr.ph:                                           ; preds = %.preheader81
  %36 = trunc i64 %indvars.iv92 to i8
  br label %37

37:                                               ; preds = %.lr.ph, %42
  %.187 = phi i32 [ %.06289, %.lr.ph ], [ %.2, %42 ]
  %.06486 = phi i32 [ 0, %.lr.ph ], [ %43, %42 ]
  %38 = zext i32 %.187 to i64
  %.idx = shl nuw nsw i64 %38, 2
  %.offs = or disjoint i64 %.idx, 2
  %39 = getelementptr inbounds nuw i8, ptr %6, i64 %.offs
  store i8 %36, ptr %39, align 2, !tbaa !34
  br label %40

40:                                               ; preds = %40, %37
  %.1.pn = phi i32 [ %.187, %37 ], [ %.2, %40 ]
  %.pn = add i32 %12, %.1.pn
  %.2 = and i32 %.pn, %8
  %41 = icmp ugt i32 %.2, %.171
  br i1 %41, label %40, label %42, !llvm.loop !72

42:                                               ; preds = %40
  %43 = add nuw nsw i32 %.06486, 1
  %exitcond91.not = icmp eq i32 %43, %34
  br i1 %exitcond91.not, label %._crit_edge, label %37, !llvm.loop !73

._crit_edge:                                      ; preds = %42, %.preheader81
  %.1.lcssa = phi i32 [ %.06289, %.preheader81 ], [ %.2, %42 ]
  %indvars.iv.next93 = add nuw nsw i64 %indvars.iv92, 1
  %exitcond96.not = icmp eq i64 %indvars.iv.next93, %wide.trip.count
  br i1 %exitcond96.not, label %44, label %.preheader81, !llvm.loop !74

44:                                               ; preds = %._crit_edge
  %45 = trunc nuw nsw i32 %3 to i16
  %.not77 = icmp eq i32 %.1.lcssa, 0
  br i1 %.not77, label %.preheader.preheader, label %64

.preheader.preheader:                             ; preds = %44
  %wide.trip.count100 = zext nneg i32 %7 to i64
  br label %.preheader

.preheader:                                       ; preds = %.preheader.preheader, %.preheader
  %indvars.iv97 = phi i64 [ 0, %.preheader.preheader ], [ %indvars.iv.next98, %.preheader ]
  %46 = getelementptr inbounds nuw %struct.FSE_decode_t, ptr %6, i64 %indvars.iv97
  %47 = getelementptr inbounds nuw i8, ptr %46, i64 2
  %48 = load i8, ptr %47, align 2, !tbaa !34
  %49 = zext i8 %48 to i64
  %50 = getelementptr inbounds nuw [256 x i16], ptr %5, i64 0, i64 %49
  %51 = load i16, ptr %50, align 2, !tbaa !37
  %52 = add i16 %51, 1
  store i16 %52, ptr %50, align 2, !tbaa !37
  %53 = zext i16 %51 to i32
  %54 = tail call range(i32 0, 33) i32 @llvm.ctlz.i32(i32 %53, i1 true)
  %55 = xor i32 %54, 31
  %56 = sub nsw i32 %3, %55
  %57 = trunc nsw i32 %56 to i8
  %58 = getelementptr inbounds nuw i8, ptr %46, i64 3
  store i8 %57, ptr %58, align 1, !tbaa !35
  %59 = and i32 %56, 255
  %60 = shl i32 %53, %59
  %61 = sub i32 %60, %7
  %62 = trunc i32 %61 to i16
  store i16 %62, ptr %46, align 2, !tbaa !32
  %indvars.iv.next98 = add nuw nsw i64 %indvars.iv97, 1
  %exitcond101.not = icmp eq i64 %indvars.iv.next98, %wide.trip.count100
  br i1 %exitcond101.not, label %63, label %.preheader, !llvm.loop !75

63:                                               ; preds = %.preheader
  store i16 %45, ptr %0, align 4
  %.sroa.4.0..sroa_idx = getelementptr inbounds nuw i8, ptr %0, i64 2
  store i16 %.269, ptr %.sroa.4.0..sroa_idx, align 2
  br label %64

64:                                               ; preds = %44, %14, %4, %63
  %.0 = phi i64 [ 0, %63 ], [ -46, %4 ], [ -44, %14 ], [ -1, %44 ]
  call void @llvm.lifetime.end.p0(i64 512, ptr nonnull %5) #18
  ret i64 %.0
}